target datalayout = "e-m:e-p270:32:32-p271:32:32-p272:64:64-i64:64-i128:128-f80:128-n8:16:32:64-S128"
target triple = "x86_64-pc-linux-gnu"

%struct.Nwk_Man_t_ = type { ptr, ptr, ptr, ptr, ptr, [5 x i32], i32, ptr, ptr, ptr, ptr, ptr, i32, i32, i32, i32, i32 }
%struct.Vec_Ptr_t_ = type { i32, i32, ptr }
%struct.If_LibLut_t_ = type { ptr, i32, i32, [33 x float], [33 x [33 x float]] }
%struct.Nwk_Obj_t_ = type { ptr, ptr, ptr, %union.anon, i32, i32, i32, i32, float, float, float, i32, i32, i32, ptr }
%union.anon = type { ptr }

@.str = private unnamed_addr constant [15 x i8] c"LUTs by size: \00", align 1
@.str.1 = private unnamed_addr constant [7 x i8] c"%d:%d \00", align 1

; Function Attrs: inlinehint nounwind uwtable
define internal i32 @Nwk_ObjFaninNum(ptr noundef %0) #4 {
  %2 = alloca ptr, align 8
  store ptr %0, ptr %2, align 8, !tbaa !33
  %3 = load ptr, ptr %2, align 8, !tbaa !33
  %4 = getelementptr inbounds nuw %struct.Nwk_Obj_t_, ptr %3, i32 0, i32 11
  %5 = load i32, ptr %4, align 4, !tbaa !41
  ret i32 %5
}

; Function Attrs: inlinehint nounwind uwtable
define internal i32 @Nwk_ObjIsNode(ptr noundef %0) #4 {
  %2 = alloca ptr, align 8
  store ptr %0, ptr %2, align 8, !tbaa !33
  %3 = load ptr, ptr %2, align 8, !tbaa !33
  %4 = getelementptr inbounds nuw %struct.Nwk_Obj_t_, ptr %3, i32 0, i32 4
  %5 = load i32, ptr %4, align 8
  %6 = and i32 %5, 7
  %7 = icmp eq i32 %6, 3
  %8 = zext i1 %7 to i32
  ret i32 %8
}

; Function Attrs: inlinehint nounwind uwtable
define internal ptr @Vec_PtrEntry(ptr noundef %0, i32 noundef %1) #4 {
  %3 = alloca ptr, align 8
  %4 = alloca i32, align 4
  store ptr %0, ptr %3, align 8, !tbaa !24
  store i32 %1, ptr %4, align 4, !tbaa !23
  %5 = load ptr, ptr %3, align 8, !tbaa !24
  %6 = getelementptr inbounds nuw %struct.Vec_Ptr_t_, ptr %5, i32 0, i32 2
  %7 = load ptr, ptr %6, align 8, !tbaa !28
  %8 = load i32, ptr %4, align 4, !tbaa !23
  %9 = sext i32 %8 to i64
  %10 = getelementptr inbounds ptr, ptr %7, i64 %9
  %11 = load ptr, ptr %10, align 8, !tbaa !40
  ret ptr %11
}

; Function Attrs: inlinehint nounwind uwtable
define internal i32 @Vec_PtrSize(ptr noundef %0) #4 {
  %2 = alloca ptr, align 8
  store ptr %0, ptr %2, align 8, !tbaa !24
  %3 = load ptr, ptr %2, align 8, !tbaa !24
  %4 = getelementptr inbounds nuw %struct.Vec_Ptr_t_, ptr %3, i32 0, i32 1
  %5 = load i32, ptr %4, align 4, !tbaa !25
  ret i32 %5
}

; Function Attrs: nounwind uwtable
define void @Nwk_ManPrintLutSizes(ptr noundef %0, ptr noundef %1) #0 {
  %3 = alloca ptr, align 8
  %4 = alloca ptr, align 8
  %5 = alloca ptr, align 8
  %6 = alloca i32, align 4
  %7 = alloca [256 x i32], align 16
  store ptr %0, ptr %3, align 8, !tbaa !3
  store ptr %1, ptr %4, align 8, !tbaa !32
  call void @llvm.lifetime.start.p0(i64 8, ptr %5) #9
  call void @llvm.lifetime.start.p0(i64 4, ptr %6) #9
  call void @llvm.lifetime.start.p0(i64 1024, ptr %7) #9
  call void @llvm.memset.p0.i64(ptr align 16 %7, i8 0, i64 1024, i1 false)
  store i32 0, ptr %6, align 4, !tbaa !23
  br label %8

8:                                                ; preds = %39, %2
  %9 = load i32, ptr %6, align 4, !tbaa !23
  %10 = load ptr, ptr %3, align 8, !tbaa !3
  %11 = getelementptr inbounds nuw %struct.Nwk_Man_t_, ptr %10, i32 0, i32 4
  %12 = load ptr, ptr %11, align 8, !tbaa !18
  %13 = call i32 @Vec_PtrSize(ptr noundef %12)
  %14 = icmp slt i32 %9, %13
  br i1 %14, label %15, label %21

15:                                               ; preds = %8
  %16 = load ptr, ptr %3, align 8, !tbaa !3
  %17 = getelementptr inbounds nuw %struct.Nwk_Man_t_, ptr %16, i32 0, i32 4
  %18 = load ptr, ptr %17, align 8, !tbaa !18
  %19 = load i32, ptr %6, align 4, !tbaa !23
  %20 = call ptr @Vec_PtrEntry(ptr noundef %18, i32 noundef %19)
  store ptr %20, ptr %5, align 8, !tbaa !33
  br label %21

21:                                               ; preds = %15, %8
  %22 = phi i1 [ false, %8 ], [ true, %15 ]
  br i1 %22, label %23, label %42

23:                                               ; preds = %21
  %24 = load ptr, ptr %5, align 8, !tbaa !33
  %25 = icmp eq ptr %24, null
  br i1 %25, label %30, label %26

26:                                               ; preds = %23
  %27 = load ptr, ptr %5, align 8, !tbaa !33
  %28 = call i32 @Nwk_ObjIsNode(ptr noundef %27)
  %29 = icmp ne i32 %28, 0
  br i1 %29, label %31, label %30

30:                                               ; preds = %26, %23
  br label %38

31:                                               ; preds = %26
  %32 = load ptr, ptr %5, align 8, !tbaa !33
  %33 = call i32 @Nwk_ObjFaninNum(ptr noundef %32)
  %34 = sext i32 %33 to i64
  %35 = getelementptr inbounds [256 x i32], ptr %7, i64 0, i64 %34
  %36 = load i32, ptr %35, align 4, !tbaa !23
  %37 = add nsw i32 %36, 1
  store i32 %37, ptr %35, align 4, !tbaa !23
  br label %38

38:                                               ; preds = %31, %30
  br label %39

39:                                               ; preds = %38
  %40 = load i32, ptr %6, align 4, !tbaa !23
  %41 = add nsw i32 %40, 1
  store i32 %41, ptr %6, align 4, !tbaa !23
  br label %8, !llvm.loop !35

42:                                               ; preds = %21
  %43 = call i32 (ptr, ...) @printf(ptr noundef @.str)
  store i32 0, ptr %6, align 4, !tbaa !23
  br label %44

44:                                               ; preds = %57, %42
  %45 = load i32, ptr %6, align 4, !tbaa !23
  %46 = load ptr, ptr %4, align 8, !tbaa !32
  %47 = getelementptr inbounds nuw %struct.If_LibLut_t_, ptr %46, i32 0, i32 1
  %48 = load i32, ptr %47, align 8, !tbaa !37
  %49 = icmp sle i32 %45, %48
  br i1 %49, label %50, label %60

50:                                               ; preds = %44
  %51 = load i32, ptr %6, align 4, !tbaa !23
  %52 = load i32, ptr %6, align 4, !tbaa !23
  %53 = sext i32 %52 to i64
  %54 = getelementptr inbounds [256 x i32], ptr %7, i64 0, i64 %53
  %55 = load i32, ptr %54, align 4, !tbaa !23
  %56 = call i32 (ptr, ...) @printf(ptr noundef @.str.1, i32 noundef %51, i32 noundef %55)
  br label %57

57:                                               ; preds = %50
  %58 = load i32, ptr %6, align 4, !tbaa !23
  %59 = add nsw i32 %58, 1
  store i32 %59, ptr %6, align 4, !tbaa !23
  br label %44, !llvm.loop !39

60:                                               ; preds = %44
  call void @llvm.lifetime.end.p0(i64 1024, ptr %7) #9
  call void @llvm.lifetime.end.p0(i64 4, ptr %6) #9
  call void @llvm.lifetime.end.p0(i64 8, ptr %5) #9
  ret void
}