; Function Attrs: nofree nounwind uwtable
define void @Nwk_ManPrintLutSizes(ptr noundef readonly captures(none) %0, ptr noundef readonly captures(none) %1) local_unnamed_addr #6 {
  %3 = alloca [256 x i32], align 16
  call void @llvm.lifetime.start.p0(i64 1024, ptr nonnull %3) #15
  call void @llvm.memset.p0.i64(ptr noundef nonnull align 16 dereferenceable(1024) %3, i8 0, i64 1024, i1 false)
  %4 = getelementptr inbounds nuw i8, ptr %0, i64 32
  %5 = load ptr, ptr %4, align 8, !tbaa !20
  %6 = getelementptr i8, ptr %5, i64 4
  %.val = load i32, ptr %6, align 4, !tbaa !3
  %7 = icmp sgt i32 %.val, 0
  br i1 %7, label %.lr.ph, label %.critedge

.lr.ph:                                           ; preds = %2
  %8 = getelementptr i8, ptr %5, i64 8
  %.val14 = load ptr, ptr %8, align 8, !tbaa !10
  %wide.trip.count = zext nneg i32 %.val to i64
  br label %9

9:                                                ; preds = %.lr.ph, %22
  %indvars.iv = phi i64 [ 0, %.lr.ph ], [ %indvars.iv.next, %22 ]
  %10 = getelementptr inbounds nuw ptr, ptr %.val14, i64 %indvars.iv
  %11 = load ptr, ptr %10, align 8, !tbaa !28
  %12 = icmp eq ptr %11, null
  br i1 %12, label %22, label %13

13:                                               ; preds = %9
  %14 = getelementptr i8, ptr %11, i64 32
  %.val15 = load i32, ptr %14, align 8
  %15 = and i32 %.val15, 7
  %.not17 = icmp eq i32 %15, 3
  br i1 %.not17, label %16, label %22

16:                                               ; preds = %13
  %17 = getelementptr i8, ptr %11, i64 60
  %.val16 = load i32, ptr %17, align 4, !tbaa !29
  %18 = sext i32 %.val16 to i64
  %19 = getelementptr inbounds [256 x i32], ptr %3, i64 0, i64 %18
  %20 = load i32, ptr %19, align 4, !tbaa !35
  %21 = add nsw i32 %20, 1
  store i32 %21, ptr %19, align 4, !tbaa !35
  br label %22

22:                                               ; preds = %16, %13, %9
  %indvars.iv.next = add nuw nsw i64 %indvars.iv, 1
  %exitcond.not = icmp eq i64 %indvars.iv.next, %wide.trip.count
  br i1 %exitcond.not, label %.critedge, label %9, !llvm.loop !36

.critedge:                                        ; preds = %22, %2
  %23 = tail call i32 (ptr, ...) @printf(ptr noundef nonnull dereferenceable(1) @.str)
  %24 = getelementptr inbounds nuw i8, ptr %1, i64 8
  %25 = load i32, ptr %24, align 8, !tbaa !38
  %.not19 = icmp slt i32 %25, 0
  br i1 %.not19, label %._crit_edge, label %.lr.ph21

.lr.ph21:                                         ; preds = %.critedge, %.lr.ph21
  %indvars.iv23 = phi i64 [ %indvars.iv.next24, %.lr.ph21 ], [ 0, %.critedge ]
  %26 = getelementptr inbounds nuw [256 x i32], ptr %3, i64 0, i64 %indvars.iv23
  %27 = load i32, ptr %26, align 4, !tbaa !35
  %28 = trunc nuw nsw i64 %indvars.iv23 to i32
  %29 = tail call i32 (ptr, ...) @printf(ptr noundef nonnull dereferenceable(1) @.str.1, i32 noundef %28, i32 noundef %27)
  %indvars.iv.next24 = add nuw nsw i64 %indvars.iv23, 1
  %30 = load i32, ptr %24, align 8, !tbaa !38
  %31 = sext i32 %30 to i64
  %.not.not = icmp slt i64 %indvars.iv23, %31
  br i1 %.not.not, label %.lr.ph21, label %._crit_edge, !llvm.loop !40

._crit_edge:                                      ; preds = %.lr.ph21, %.critedge
  call void @llvm.lifetime.end.p0(i64 1024, ptr nonnull %3) #15
  ret void
}